target datalayout = "e-m:e-p270:32:32-p271:32:32-p272:64:64-i64:64-i128:128-f80:128-n8:16:32:64-S128"
target triple = "x86_64-pc-linux-gnu"

%"class.clang::SourceLocation" = type { i32 }
%"class.clang::CXXScopeSpec" = type { %"class.clang::SourceRange", %"class.clang::NestedNameSpecifierLocBuilder", %"class.llvm::ArrayRef" }
%"class.clang::SourceRange" = type { %"class.clang::SourceLocation", %"class.clang::SourceLocation" }
%"class.clang::NestedNameSpecifierLocBuilder" = type { ptr, ptr, i32, i32 }
%"class.llvm::ArrayRef" = type { ptr, i64 }
%"class.clang::ParsedAttributesView" = type { %"class.clang::SourceRange", %"class.llvm::SmallVector.342" }
%"class.llvm::SmallVector.342" = type { %"class.llvm::SmallVectorImpl.343", %"struct.llvm::SmallVectorStorage.346" }
%"class.llvm::SmallVectorImpl.343" = type { %"class.llvm::SmallVectorTemplateBase.344" }
%"class.llvm::SmallVectorTemplateBase.344" = type { %"class.llvm::SmallVectorTemplateCommon.345" }
%"class.llvm::SmallVectorTemplateCommon.345" = type { %"class.llvm::SmallVectorBase" }
%"class.llvm::SmallVectorBase" = type { ptr, i32, i32 }
%"struct.llvm::SmallVectorStorage.346" = type { [48 x i8] }
%"struct.clang::UnionOpaquePtr" = type { ptr }
%"class.clang::ParsedAttributes" = type { %"class.clang::ParsedAttributesView", %"class.clang::AttributePool" }
%"class.clang::AttributePool" = type { ptr, %"class.llvm::SmallVector.342" }
%"class.clang::DeclSpec" = type { i64, %union.anon.349, ptr, %"class.clang::ExplicitSpecifier", %"class.clang::ParsedAttributes", %"class.clang::CXXScopeSpec", %"class.clang::SourceRange", %"class.clang::SourceLocation", %"class.clang::SourceLocation", %"class.clang::SourceRange", %"class.clang::SourceLocation", %"class.clang::SourceLocation", %"class.clang::SourceLocation", %"class.clang::SourceLocation", %"class.clang::SourceLocation", %"class.clang::SourceLocation", %"class.clang::SourceLocation", %"class.clang::SourceRange", %"class.clang::SourceLocation", %"class.clang::SourceLocation", %"class.clang::SourceLocation", %"class.clang::SourceLocation", %"class.clang::SourceLocation", %"class.clang::SourceLocation", %"class.clang::SourceLocation", %"class.clang::SourceLocation", %"class.clang::SourceLocation", %"class.clang::SourceLocation", %"class.clang::SourceLocation", %"class.clang::SourceLocation", %"class.clang::SourceLocation", %"class.clang::SourceLocation", %"class.clang::SourceLocation", %"struct.clang::WrittenBuiltinSpecs", ptr }
%union.anon.349 = type { %"struct.clang::UnionOpaquePtr" }
%"class.clang::ExplicitSpecifier" = type { %"class.llvm::PointerIntPair.350" }
%"class.llvm::PointerIntPair.350" = type { %"struct.llvm::detail::PunnedPointer.351" }
%"struct.llvm::detail::PunnedPointer.351" = type { [8 x i8] }
%"struct.clang::WrittenBuiltinSpecs" = type { i16, [2 x i8] }

; Function Attrs: mustprogress nounwind uwtable
define dso_local noundef zeroext i1 @_ZN5clang8DeclSpec13SetBitIntTypeENS_14SourceLocationEPNS_4ExprERPKcRjRKNS_14PrintingPolicyE(ptr noundef nonnull align 8 dereferenceable(360) %0, i32 %1, ptr noundef %2, ptr noundef nonnull align 8 dereferenceable(8) %3, ptr noundef nonnull align 4 dereferenceable(4) %4, ptr noundef nonnull align 8 dereferenceable(16) %5) #0 align 2 {
  %7 = alloca i1, align 1
  %8 = alloca %"class.clang::SourceLocation", align 4
  %9 = alloca ptr, align 8
  %10 = alloca ptr, align 8
  %11 = alloca ptr, align 8
  %12 = alloca ptr, align 8
  %13 = alloca ptr, align 8
  %14 = getelementptr inbounds nuw %"class.clang::SourceLocation", ptr %8, i32 0, i32 0
  store i32 %1, ptr %14, align 4
  store ptr %0, ptr %9, align 8
  store ptr %2, ptr %10, align 8
  store ptr %3, ptr %11, align 8
  store ptr %4, ptr %12, align 8
  store ptr %5, ptr %13, align 8
  %15 = load ptr, ptr %9, align 8
  %16 = load i64, ptr %15, align 8
  %17 = lshr i64 %16, 12
  %18 = and i64 %17, 127
  %19 = trunc i64 %18 to i32
  %20 = icmp eq i32 %19, 69
  br i1 %20, label %21, label %22

21:                                               ; preds = %6
  store i1 false, ptr %7, align 1
  br label %48

22:                                               ; preds = %6
  %23 = load i64, ptr %15, align 8
  %24 = lshr i64 %23, 12
  %25 = and i64 %24, 127
  %26 = trunc i64 %25 to i32
  %27 = icmp ne i32 %26, 0
  br i1 %27, label %28, label %37

28:                                               ; preds = %22
  %29 = load i64, ptr %15, align 8
  %30 = lshr i64 %29, 12
  %31 = and i64 %30, 127
  %32 = trunc i64 %31 to i32
  %33 = load ptr, ptr %13, align 8
  %34 = call noundef ptr @_ZN5clang8DeclSpec16getSpecifierNameENS_17TypeSpecifierTypeERKNS_14PrintingPolicyE(i32 noundef %32, ptr noundef nonnull align 8 dereferenceable(16) %33)
  %35 = load ptr, ptr %11, align 8
  store ptr %34, ptr %35, align 8
  %36 = load ptr, ptr %12, align 8
  store i32 3693, ptr %36, align 4
  store i1 true, ptr %7, align 1
  br label %48

37:                                               ; preds = %22
  %38 = load i64, ptr %15, align 8
  %39 = and i64 %38, -520193
  %40 = or i64 %39, 36864
  store i64 %40, ptr %15, align 8
  %41 = load ptr, ptr %10, align 8
  %42 = getelementptr inbounds nuw %"class.clang::DeclSpec", ptr %15, i32 0, i32 1
  store ptr %41, ptr %42, align 8
  %43 = getelementptr inbounds nuw %"class.clang::DeclSpec", ptr %15, i32 0, i32 12
  call void @llvm.memcpy.p0.p0.i64(ptr align 8 %43, ptr align 4 %8, i64 4, i1 false)
  %44 = getelementptr inbounds nuw %"class.clang::DeclSpec", ptr %15, i32 0, i32 16
  call void @llvm.memcpy.p0.p0.i64(ptr align 8 %44, ptr align 4 %8, i64 4, i1 false)
  %45 = load i64, ptr %15, align 8
  %46 = and i64 %45, -4194305
  %47 = or i64 %46, 0
  store i64 %47, ptr %15, align 8
  store i1 false, ptr %7, align 1
  br label %48

48:                                               ; preds = %37, %28, %21
  %49 = load i1, ptr %7, align 1
  ret i1 %49
}