; Function Attrs: mustprogress nofree norecurse nosync nounwind willreturn memory(argmem: readwrite) uwtable
define dso_local noundef zeroext i1 @_ZN5clang8DeclSpec13SetBitIntTypeENS_14SourceLocationEPNS_4ExprERPKcRjRKNS_14PrintingPolicyE(ptr nocapture noundef nonnull align 8 dereferenceable(360) %0, i32 %1, ptr noundef %2, ptr nocapture noundef nonnull writeonly align 8 dereferenceable(8) %3, ptr nocapture noundef nonnull writeonly align 4 dereferenceable(4) %4, ptr nocapture noundef nonnull readonly align 8 dereferenceable(16) %5) local_unnamed_addr #0 align 2 {
  %7 = load i64, ptr %0, align 8
  %8 = trunc i64 %7 to i32
  %9 = lshr i32 %8, 12
  %10 = and i32 %9, 127
  switch i32 %10, label %11 [
    i32 69, label %19
    i32 0, label %13
  ]

11:                                               ; preds = %6
  %12 = tail call noundef ptr @_ZN5clang8DeclSpec16getSpecifierNameENS_17TypeSpecifierTypeERKNS_14PrintingPolicyE(i32 noundef %10, ptr noundef nonnull align 8 dereferenceable(16) %5)
  store ptr %12, ptr %3, align 8
  store i32 3693, ptr %4, align 4
  br label %19

13:                                               ; preds = %6
  %14 = getelementptr inbounds nuw i8, ptr %0, i64 8
  store ptr %2, ptr %14, align 8
  %15 = getelementptr inbounds nuw i8, ptr %0, i64 256
  store i32 %1, ptr %15, align 8
  %16 = getelementptr inbounds nuw i8, ptr %0, i64 272
  store i32 %1, ptr %16, align 8
  %17 = and i64 %7, -4714497
  %18 = or disjoint i64 %17, 36864
  store i64 %18, ptr %0, align 8
  br label %19

19:                                               ; preds = %6, %13, %11
  %.0 = phi i1 [ true, %11 ], [ false, %13 ], [ false, %6 ]
  ret i1 %.0
}